; Function Attrs: mustprogress uwtable
define dso_local void @_ZN4absl19ReleasableMutexLock7ReleaseEv(ptr noundef nonnull align 8 captures(none) dereferenceable(8) %0) local_unnamed_addr #0 align 2 {
  %2 = load ptr, ptr %0, align 8, !tbaa !133
  %.not = icmp eq ptr %2, null
  br i1 %.not, label %3, label %4, !prof !83

3:                                                ; preds = %1
  tail call void (i32, ptr, i32, ptr, ...) @_ZN4absl16raw_log_internal6RawLogENS_11LogSeverityEPKciS3_z(i32 noundef 3, ptr noundef nonnull getelementptr inbounds nuw (i8, ptr @.str, i64 120), i32 noundef 2764, ptr noundef nonnull @.str.1, ptr noundef nonnull @.str.43, ptr noundef nonnull @.str.44)
  unreachable

4:                                                ; preds = %1
  %5 = load atomic i64, ptr %2 monotonic, align 8
  %6 = and i64 %5, 30
  %7 = xor i64 %6, 10
  %8 = icmp samesign ult i64 %7, 6
  br i1 %8, label %_ZNSt13__atomic_baseIlE23compare_exchange_strongERllSt12memory_orderS2_.exit.i, label %12

_ZNSt13__atomic_baseIlE23compare_exchange_strongERllSt12memory_orderS2_.exit.i: ; preds = %4
  %9 = and i64 %5, -41
  %10 = cmpxchg ptr %2, i64 %5, i64 %9 release monotonic, align 8
  %11 = extractvalue { i64, i1 } %10, 1
  br i1 %11, label %_ZN4absl5Mutex6UnlockEv.exit, label %12

12:                                               ; preds = %_ZNSt13__atomic_baseIlE23compare_exchange_strongERllSt12memory_orderS2_.exit.i, %4
  tail call void @_ZN4absl5Mutex10UnlockSlowEPNS_15SynchWaitParamsE(ptr noundef nonnull align 8 dereferenceable(8) %2, ptr noundef null) #29
  br label %_ZN4absl5Mutex6UnlockEv.exit

_ZN4absl5Mutex6UnlockEv.exit:                     ; preds = %_ZNSt13__atomic_baseIlE23compare_exchange_strongERllSt12memory_orderS2_.exit.i, %12
  store ptr null, ptr %0, align 8, !tbaa !133
  ret void
}